target datalayout = "e-m:e-p270:32:32-p271:32:32-p272:64:64-i64:64-i128:128-f80:128-n8:16:32:64-S128"
target triple = "x86_64-unknown-linux-gnu"

%"class.rocksdb::Slice" = type { ptr, i64 }
%"class.rocksdb::BuiltinFilterBitsReader" = type { %"class.rocksdb::FilterBitsReader" }
%"class.rocksdb::FilterBitsReader" = type { ptr }
%"class.rocksdb::(anonymous namespace)::Standard128RibbonBitsReader" = type <{ %"class.rocksdb::BuiltinFilterBitsReader", %"class.rocksdb::ribbon::SerializableInterleavedSolution", %"class.rocksdb::ribbon::StandardHasher", [4 x i8] }>
%"class.rocksdb::ribbon::SerializableInterleavedSolution" = type <{ ptr, i64, i32, i32, i32, [4 x i8] }>
%"class.rocksdb::ribbon::StandardHasher" = type { i32 }

; Function Attrs: mustprogress nounwind uwtable
define linkonce_odr noundef i32 @_ZN7rocksdb6detail20FastRangeGenericImplImjE2FnEmj(i64 noundef %hash, i32 noundef %range) #1 comdat align 2 {
entry:
  %hash.addr = alloca i64, align 8
  %range.addr = alloca i32, align 4
  %range64 = alloca i64, align 8
  %tmp = alloca i64, align 8
  %tmp2 = alloca i64, align 8
  store i64 %hash, ptr %hash.addr, align 8
  store i32 %range, ptr %range.addr, align 4
  %0 = load i32, ptr %range.addr, align 4
  %conv = zext i32 %0 to i64
  store i64 %conv, ptr %range64, align 8
  %1 = load i64, ptr %range64, align 8
  %and = and i64 %1, 4294967295
  %2 = load i64, ptr %hash.addr, align 8
  %and1 = and i64 %2, 4294967295
  %mul = mul i64 %and, %and1
  store i64 %mul, ptr %tmp, align 8
  %3 = load i64, ptr %tmp, align 8
  %shr = lshr i64 %3, 32
  store i64 %shr, ptr %tmp, align 8
  %4 = load i64, ptr %range64, align 8
  %and2 = and i64 %4, 4294967295
  %5 = load i64, ptr %hash.addr, align 8
  %shr3 = lshr i64 %5, 32
  %mul4 = mul i64 %and2, %shr3
  %6 = load i64, ptr %tmp, align 8
  %add = add i64 %6, %mul4
  store i64 %add, ptr %tmp, align 8
  %7 = load i64, ptr %range64, align 8
  %shr5 = lshr i64 %7, 32
  %8 = load i64, ptr %hash.addr, align 8
  %and6 = and i64 %8, 4294967295
  %mul7 = mul i64 %shr5, %and6
  store i64 %mul7, ptr %tmp2, align 8
  %9 = load i64, ptr %tmp2, align 8
  %conv8 = trunc i64 %9 to i32
  %conv9 = zext i32 %conv8 to i64
  %10 = load i64, ptr %tmp, align 8
  %add10 = add i64 %10, %conv9
  store i64 %add10, ptr %tmp, align 8
  %11 = load i64, ptr %tmp, align 8
  %shr11 = lshr i64 %11, 32
  store i64 %shr11, ptr %tmp, align 8
  %12 = load i64, ptr %tmp2, align 8
  %shr12 = lshr i64 %12, 32
  %13 = load i64, ptr %tmp, align 8
  %add13 = add i64 %13, %shr12
  store i64 %add13, ptr %tmp, align 8
  %14 = load i64, ptr %range64, align 8
  %shr14 = lshr i64 %14, 32
  %15 = load i64, ptr %hash.addr, align 8
  %shr15 = lshr i64 %15, 32
  %mul16 = mul i64 %shr14, %shr15
  %16 = load i64, ptr %tmp, align 8
  %add17 = add i64 %16, %mul16
  store i64 %add17, ptr %tmp, align 8
  %17 = load i64, ptr %tmp, align 8
  %conv18 = trunc i64 %17 to i32
  ret i32 %conv18
}

; Function Attrs: mustprogress uwtable
define linkonce_odr noundef i32 @_ZN7rocksdb16FastRangeGenericImjEET0_T_S1_(i64 noundef %hash, i32 noundef %range) #0 comdat {
entry:
  %hash.addr = alloca i64, align 8
  %range.addr = alloca i32, align 4
  store i64 %hash, ptr %hash.addr, align 8
  store i32 %range, ptr %range.addr, align 4
  %0 = load i64, ptr %hash.addr, align 8
  %1 = load i32, ptr %range.addr, align 4
  %call = call noundef i32 @_ZN7rocksdb6detail20FastRangeGenericImplImjE2FnEmj(i64 noundef %0, i32 noundef %1)
  ret i32 %call
}

; Function Attrs: mustprogress nounwind uwtable
define internal noundef i64 @_ZN7rocksdb6ribbon23StandardRehasherAdapterINS_12_GLOBAL__N_141Standard128RibbonRehasherTypesAndSettingsEE6HashFnERKmj(ptr noundef nonnull align 8 dereferenceable(8) %input, i32 noundef %raw_seed) #1 align 2 {
entry:
  %input.addr = alloca ptr, align 8
  %raw_seed.addr = alloca i32, align 4
  store ptr %input, ptr %input.addr, align 8
  store i32 %raw_seed, ptr %raw_seed.addr, align 4
  %0 = load ptr, ptr %input.addr, align 8
  %1 = load i64, ptr %0, align 8
  %2 = load i32, ptr %raw_seed.addr, align 4
  %conv = zext i32 %2 to i64
  %xor = xor i64 %1, %conv
  %mul = mul i64 %xor, 7031196922566818317
  ret i64 %mul
}

; Function Attrs: mustprogress nounwind uwtable
define internal void @_ZNK7rocksdb6ribbon31SerializableInterleavedSolutionINS0_23StandardRehasherAdapterINS_12_GLOBAL__N_141Standard128RibbonRehasherTypesAndSettingsEEEE20PrefetchSegmentRangeEjj(ptr noundef nonnull align 8 dereferenceable(28) %this, i32 noundef %begin_segment_num, i32 noundef %end_segment_num) #1 align 2 {
entry:
  %this.addr = alloca ptr, align 8
  %begin_segment_num.addr = alloca i32, align 4
  %end_segment_num.addr = alloca i32, align 4
  %cur = alloca ptr, align 8
  %last = alloca ptr, align 8
  store ptr %this, ptr %this.addr, align 8
  store i32 %begin_segment_num, ptr %begin_segment_num.addr, align 4
  store i32 %end_segment_num, ptr %end_segment_num.addr, align 4
  %this1 = load ptr, ptr %this.addr, align 8
  %0 = load i32, ptr %end_segment_num.addr, align 4
  %1 = load i32, ptr %begin_segment_num.addr, align 4
  %cmp = icmp eq i32 %0, %1
  br i1 %cmp, label %if.then, label %if.end

if.then:                                          ; preds = %entry
  br label %return

if.end:                                           ; preds = %entry
  %data_ = getelementptr inbounds %"class.rocksdb::ribbon::SerializableInterleavedSolution", ptr %this1, i32 0, i32 0
  %2 = load ptr, ptr %data_, align 8
  %3 = load i32, ptr %begin_segment_num.addr, align 4
  %conv = zext i32 %3 to i64
  %mul = mul i64 %conv, 16
  %add.ptr = getelementptr inbounds i8, ptr %2, i64 %mul
  store ptr %add.ptr, ptr %cur, align 8
  %data_2 = getelementptr inbounds %"class.rocksdb::ribbon::SerializableInterleavedSolution", ptr %this1, i32 0, i32 0
  %4 = load ptr, ptr %data_2, align 8
  %5 = load i32, ptr %end_segment_num.addr, align 4
  %sub = sub i32 %5, 1
  %conv3 = zext i32 %sub to i64
  %mul4 = mul i64 %conv3, 16
  %add.ptr5 = getelementptr inbounds i8, ptr %4, i64 %mul4
  store ptr %add.ptr5, ptr %last, align 8
  br label %while.cond

while.cond:                                       ; preds = %while.body, %if.end
  %6 = load ptr, ptr %cur, align 8
  %7 = load ptr, ptr %last, align 8
  %cmp6 = icmp ult ptr %6, %7
  br i1 %cmp6, label %while.body, label %while.end

while.body:                                       ; preds = %while.cond
  %8 = load ptr, ptr %cur, align 8
  call void @llvm.prefetch.p0(ptr %8, i32 0, i32 1, i32 1)
  %9 = load ptr, ptr %cur, align 8
  %add.ptr7 = getelementptr inbounds i8, ptr %9, i64 64
  store ptr %add.ptr7, ptr %cur, align 8
  br label %while.cond, !llvm.loop !43

while.end:                                        ; preds = %while.cond
  %10 = load ptr, ptr %last, align 8
  call void @llvm.prefetch.p0(ptr %10, i32 0, i32 1, i32 1)
  br label %return

return:                                           ; preds = %while.end, %if.then
  ret void
}

; Function Attrs: mustprogress nounwind uwtable
define linkonce_odr noundef nonnull align 4 dereferenceable(4) ptr @_ZSt3minIjERKT_S2_S2_(ptr noundef nonnull align 4 dereferenceable(4) %__a, ptr noundef nonnull align 4 dereferenceable(4) %__b) #1 comdat {
entry:
  %retval = alloca ptr, align 8
  %__a.addr = alloca ptr, align 8
  %__b.addr = alloca ptr, align 8
  store ptr %__a, ptr %__a.addr, align 8
  store ptr %__b, ptr %__b.addr, align 8
  %0 = load ptr, ptr %__b.addr, align 8
  %1 = load i32, ptr %0, align 4
  %2 = load ptr, ptr %__a.addr, align 8
  %3 = load i32, ptr %2, align 4
  %cmp = icmp ult i32 %1, %3
  br i1 %cmp, label %if.then, label %if.end

if.then:                                          ; preds = %entry
  %4 = load ptr, ptr %__b.addr, align 8
  store ptr %4, ptr %retval, align 8
  br label %return

if.end:                                           ; preds = %entry
  %5 = load ptr, ptr %__a.addr, align 8
  store ptr %5, ptr %retval, align 8
  br label %return

return:                                           ; preds = %if.end, %if.then
  %6 = load ptr, ptr %retval, align 8
  ret ptr %6
}

; Function Attrs: mustprogress nounwind uwtable
define internal noundef i32 @_ZNK7rocksdb6ribbon31SerializableInterleavedSolutionINS0_23StandardRehasherAdapterINS_12_GLOBAL__N_141Standard128RibbonRehasherTypesAndSettingsEEEE18GetUpperNumColumnsEv(ptr noundef nonnull align 8 dereferenceable(28) %this) #1 align 2 {
entry:
  %this.addr = alloca ptr, align 8
  store ptr %this, ptr %this.addr, align 8
  %this1 = load ptr, ptr %this.addr, align 8
  %upper_num_columns_ = getelementptr inbounds %"class.rocksdb::ribbon::SerializableInterleavedSolution", ptr %this1, i32 0, i32 3
  %0 = load i32, ptr %upper_num_columns_, align 4
  ret i32 %0
}

; Function Attrs: mustprogress nounwind uwtable
define internal noundef i32 @_ZNK7rocksdb6ribbon31SerializableInterleavedSolutionINS0_23StandardRehasherAdapterINS_12_GLOBAL__N_141Standard128RibbonRehasherTypesAndSettingsEEEE18GetUpperStartBlockEv(ptr noundef nonnull align 8 dereferenceable(28) %this) #1 align 2 {
entry:
  %this.addr = alloca ptr, align 8
  store ptr %this, ptr %this.addr, align 8
  %this1 = load ptr, ptr %this.addr, align 8
  %upper_start_block_ = getelementptr inbounds %"class.rocksdb::ribbon::SerializableInterleavedSolution", ptr %this1, i32 0, i32 4
  %0 = load i32, ptr %upper_start_block_, align 8
  ret i32 %0
}

; Function Attrs: mustprogress uwtable
define internal noundef i32 @_ZNK7rocksdb6ribbon14StandardHasherINS0_23StandardRehasherAdapterINS_12_GLOBAL__N_141Standard128RibbonRehasherTypesAndSettingsEEEE8GetStartEmj(ptr noundef nonnull align 4 dereferenceable(4) %this, i64 noundef %h, i32 noundef %num_starts) #0 align 2 {
entry:
  %this.addr = alloca ptr, align 8
  %h.addr = alloca i64, align 8
  %num_starts.addr = alloca i32, align 4
  store ptr %this, ptr %this.addr, align 8
  store i64 %h, ptr %h.addr, align 8
  store i32 %num_starts, ptr %num_starts.addr, align 4
  %0 = load i64, ptr %h.addr, align 8
  %1 = load i32, ptr %num_starts.addr, align 4
  %call = call noundef i32 @_ZN7rocksdb16FastRangeGenericImjEET0_T_S1_(i64 noundef %0, i32 noundef %1)
  ret i32 %call
}

; Function Attrs: mustprogress nounwind uwtable
define internal noundef i32 @_ZNK7rocksdb6ribbon31SerializableInterleavedSolutionINS0_23StandardRehasherAdapterINS_12_GLOBAL__N_141Standard128RibbonRehasherTypesAndSettingsEEEE12GetNumStartsEv(ptr noundef nonnull align 8 dereferenceable(28) %this) #1 align 2 {
entry:
  %this.addr = alloca ptr, align 8
  store ptr %this, ptr %this.addr, align 8
  %this1 = load ptr, ptr %this.addr, align 8
  %num_starts_ = getelementptr inbounds %"class.rocksdb::ribbon::SerializableInterleavedSolution", ptr %this1, i32 0, i32 2
  %0 = load i32, ptr %num_starts_, align 8
  ret i32 %0
}

; Function Attrs: mustprogress uwtable
define internal noundef i64 @_ZNK7rocksdb6ribbon14StandardHasherINS0_23StandardRehasherAdapterINS_12_GLOBAL__N_141Standard128RibbonRehasherTypesAndSettingsEEEE7GetHashERKm(ptr noundef nonnull align 4 dereferenceable(4) %this, ptr noundef nonnull align 8 dereferenceable(8) %key) #0 align 2 {
entry:
  %this.addr = alloca ptr, align 8
  %key.addr = alloca ptr, align 8
  store ptr %this, ptr %this.addr, align 8
  store ptr %key, ptr %key.addr, align 8
  %this1 = load ptr, ptr %this.addr, align 8
  %0 = load ptr, ptr %key.addr, align 8
  %raw_seed_ = getelementptr inbounds %"class.rocksdb::ribbon::StandardHasher", ptr %this1, i32 0, i32 0
  %1 = load i32, ptr %raw_seed_, align 4
  %call = call noundef i64 @_ZN7rocksdb6ribbon23StandardRehasherAdapterINS_12_GLOBAL__N_141Standard128RibbonRehasherTypesAndSettingsEE6HashFnERKmj(ptr noundef nonnull align 8 dereferenceable(8) %0, i32 noundef %1)
  ret i64 %call
}

; Function Attrs: mustprogress uwtable
define internal void @_ZN7rocksdb6ribbon23InterleavedPrepareQueryINS0_31SerializableInterleavedSolutionINS0_23StandardRehasherAdapterINS_12_GLOBAL__N_141Standard128RibbonRehasherTypesAndSettingsEEEEENS0_14StandardHasherIS6_EEEEvRKNT0_3KeyERKSA_RKT_PNSA_4HashEPNSG_5IndexESM_SM_(ptr noundef nonnull align 8 dereferenceable(8) %key, ptr noundef nonnull align 4 dereferenceable(4) %hasher, ptr noundef nonnull align 8 dereferenceable(28) %iss, ptr noundef %saved_hash, ptr noundef %saved_segment_num, ptr noundef %saved_num_columns, ptr noundef %saved_start_bit) #0 {
entry:
  %key.addr = alloca ptr, align 8
  %hasher.addr = alloca ptr, align 8
  %iss.addr = alloca ptr, align 8
  %saved_hash.addr = alloca ptr, align 8
  %saved_segment_num.addr = alloca ptr, align 8
  %saved_num_columns.addr = alloca ptr, align 8
  %saved_start_bit.addr = alloca ptr, align 8
  %hash = alloca i64, align 8
  %start_slot = alloca i32, align 4
  %kCoeffBits = alloca i32, align 4
  %upper_start_block = alloca i32, align 4
  %num_columns = alloca i32, align 4
  %start_block_num = alloca i32, align 4
  %segment_num = alloca i32, align 4
  %start_bit = alloca i32, align 4
  %segment_count = alloca i32, align 4
  store ptr %key, ptr %key.addr, align 8
  store ptr %hasher, ptr %hasher.addr, align 8
  store ptr %iss, ptr %iss.addr, align 8
  store ptr %saved_hash, ptr %saved_hash.addr, align 8
  store ptr %saved_segment_num, ptr %saved_segment_num.addr, align 8
  store ptr %saved_num_columns, ptr %saved_num_columns.addr, align 8
  store ptr %saved_start_bit, ptr %saved_start_bit.addr, align 8
  %0 = load ptr, ptr %hasher.addr, align 8
  %1 = load ptr, ptr %key.addr, align 8
  %call = call noundef i64 @_ZNK7rocksdb6ribbon14StandardHasherINS0_23StandardRehasherAdapterINS_12_GLOBAL__N_141Standard128RibbonRehasherTypesAndSettingsEEEE7GetHashERKm(ptr noundef nonnull align 4 dereferenceable(4) %0, ptr noundef nonnull align 8 dereferenceable(8) %1)
  store i64 %call, ptr %hash, align 8
  %2 = load ptr, ptr %hasher.addr, align 8
  %3 = load i64, ptr %hash, align 8
  %4 = load ptr, ptr %iss.addr, align 8
  %call1 = call noundef i32 @_ZNK7rocksdb6ribbon31SerializableInterleavedSolutionINS0_23StandardRehasherAdapterINS_12_GLOBAL__N_141Standard128RibbonRehasherTypesAndSettingsEEEE12GetNumStartsEv(ptr noundef nonnull align 8 dereferenceable(28) %4)
  %call2 = call noundef i32 @_ZNK7rocksdb6ribbon14StandardHasherINS0_23StandardRehasherAdapterINS_12_GLOBAL__N_141Standard128RibbonRehasherTypesAndSettingsEEEE8GetStartEmj(ptr noundef nonnull align 4 dereferenceable(4) %2, i64 noundef %3, i32 noundef %call1)
  store i32 %call2, ptr %start_slot, align 4
  store i32 128, ptr %kCoeffBits, align 4
  %5 = load ptr, ptr %iss.addr, align 8
  %call3 = call noundef i32 @_ZNK7rocksdb6ribbon31SerializableInterleavedSolutionINS0_23StandardRehasherAdapterINS_12_GLOBAL__N_141Standard128RibbonRehasherTypesAndSettingsEEEE18GetUpperStartBlockEv(ptr noundef nonnull align 8 dereferenceable(28) %5)
  store i32 %call3, ptr %upper_start_block, align 4
  %6 = load ptr, ptr %iss.addr, align 8
  %call4 = call noundef i32 @_ZNK7rocksdb6ribbon31SerializableInterleavedSolutionINS0_23StandardRehasherAdapterINS_12_GLOBAL__N_141Standard128RibbonRehasherTypesAndSettingsEEEE18GetUpperNumColumnsEv(ptr noundef nonnull align 8 dereferenceable(28) %6)
  store i32 %call4, ptr %num_columns, align 4
  %7 = load i32, ptr %start_slot, align 4
  %div = udiv i32 %7, 128
  store i32 %div, ptr %start_block_num, align 4
  %8 = load i32, ptr %start_block_num, align 4
  %9 = load i32, ptr %num_columns, align 4
  %mul = mul i32 %8, %9
  %call5 = call noundef nonnull align 4 dereferenceable(4) ptr @_ZSt3minIjERKT_S2_S2_(ptr noundef nonnull align 4 dereferenceable(4) %start_block_num, ptr noundef nonnull align 4 dereferenceable(4) %upper_start_block)
  %10 = load i32, ptr %call5, align 4
  %sub = sub i32 %mul, %10
  store i32 %sub, ptr %segment_num, align 4
  %11 = load i32, ptr %start_block_num, align 4
  %12 = load i32, ptr %upper_start_block, align 4
  %cmp = icmp ult i32 %11, %12
  %cond = select i1 %cmp, i32 1, i32 0
  %13 = load i32, ptr %num_columns, align 4
  %sub6 = sub i32 %13, %cond
  store i32 %sub6, ptr %num_columns, align 4
  %14 = load i32, ptr %start_slot, align 4
  %rem = urem i32 %14, 128
  store i32 %rem, ptr %start_bit, align 4
  %15 = load i32, ptr %num_columns, align 4
  %16 = load i32, ptr %start_bit, align 4
  %cmp7 = icmp eq i32 %16, 0
  br i1 %cmp7, label %cond.true, label %cond.false

cond.true:                                        ; preds = %entry
  br label %cond.end

cond.false:                                       ; preds = %entry
  %17 = load i32, ptr %num_columns, align 4
  br label %cond.end

cond.end:                                         ; preds = %cond.false, %cond.true
  %cond8 = phi i32 [ 0, %cond.true ], [ %17, %cond.false ]
  %add = add i32 %15, %cond8
  store i32 %add, ptr %segment_count, align 4
  %18 = load ptr, ptr %iss.addr, align 8
  %19 = load i32, ptr %segment_num, align 4
  %20 = load i32, ptr %segment_num, align 4
  %21 = load i32, ptr %segment_count, align 4
  %add9 = add i32 %20, %21
  call void @_ZNK7rocksdb6ribbon31SerializableInterleavedSolutionINS0_23StandardRehasherAdapterINS_12_GLOBAL__N_141Standard128RibbonRehasherTypesAndSettingsEEEE20PrefetchSegmentRangeEjj(ptr noundef nonnull align 8 dereferenceable(28) %18, i32 noundef %19, i32 noundef %add9)
  %22 = load i64, ptr %hash, align 8
  %23 = load ptr, ptr %saved_hash.addr, align 8
  store i64 %22, ptr %23, align 8
  %24 = load i32, ptr %segment_num, align 4
  %25 = load ptr, ptr %saved_segment_num.addr, align 8
  store i32 %24, ptr %25, align 4
  %26 = load i32, ptr %num_columns, align 4
  %27 = load ptr, ptr %saved_num_columns.addr, align 8
  store i32 %26, ptr %27, align 4
  %28 = load i32, ptr %start_bit, align 4
  %29 = load ptr, ptr %saved_start_bit.addr, align 8
  store i32 %28, ptr %29, align 4
  ret void
}

; Function Attrs: mustprogress nounwind uwtable
define linkonce_odr noundef i64 @_ZNK7rocksdb5Slice4sizeEv(ptr noundef nonnull align 8 dereferenceable(16) %this) #1 comdat align 2 {
entry:
  %this.addr = alloca ptr, align 8
  store ptr %this, ptr %this.addr, align 8
  %this1 = load ptr, ptr %this.addr, align 8
  %size_ = getelementptr inbounds %"class.rocksdb::Slice", ptr %this1, i32 0, i32 1
  %0 = load i64, ptr %size_, align 8
  ret i64 %0
}

; Function Attrs: mustprogress nounwind uwtable
define linkonce_odr noundef ptr @_ZNK7rocksdb5Slice4dataEv(ptr noundef nonnull align 8 dereferenceable(16) %this) #1 comdat align 2 {
entry:
  %this.addr = alloca ptr, align 8
  store ptr %this, ptr %this.addr, align 8
  %this1 = load ptr, ptr %this.addr, align 8
  %data_ = getelementptr inbounds %"class.rocksdb::Slice", ptr %this1, i32 0, i32 0
  %0 = load ptr, ptr %data_, align 8
  ret ptr %0
}

; Function Attrs: mustprogress uwtable
define internal noundef zeroext i1 @_ZNK7rocksdb6ribbon31SerializableInterleavedSolutionINS0_23StandardRehasherAdapterINS_12_GLOBAL__N_141Standard128RibbonRehasherTypesAndSettingsEEEE11FilterQueryINS0_14StandardHasherIS5_EEEEbRKmRKT_(ptr noundef nonnull align 8 dereferenceable(28) %this, ptr noundef nonnull align 8 dereferenceable(8) %input, ptr noundef nonnull align 4 dereferenceable(4) %hasher) #0 align 2 {
entry:
  %this.addr = alloca ptr, align 8
  %input.addr = alloca ptr, align 8
  %hasher.addr = alloca ptr, align 8
  %hash = alloca i64, align 8
  %segment_num = alloca i32, align 4
  %num_columns = alloca i32, align 4
  %start_bit = alloca i32, align 4
  store ptr %this, ptr %this.addr, align 8
  store ptr %input, ptr %input.addr, align 8
  store ptr %hasher, ptr %hasher.addr, align 8
  %this1 = load ptr, ptr %this.addr, align 8
  %0 = load ptr, ptr %input.addr, align 8
  %1 = load ptr, ptr %hasher.addr, align 8
  call void @_ZN7rocksdb6ribbon23InterleavedPrepareQueryINS0_31SerializableInterleavedSolutionINS0_23StandardRehasherAdapterINS_12_GLOBAL__N_141Standard128RibbonRehasherTypesAndSettingsEEEEENS0_14StandardHasherIS6_EEEEvRKNT0_3KeyERKSA_RKT_PNSA_4HashEPNSG_5IndexESM_SM_(ptr noundef nonnull align 8 dereferenceable(8) %0, ptr noundef nonnull align 4 dereferenceable(4) %1, ptr noundef nonnull align 8 dereferenceable(28) %this1, ptr noundef %hash, ptr noundef %segment_num, ptr noundef %num_columns, ptr noundef %start_bit)
  %2 = load i64, ptr %hash, align 8
  %3 = load i32, ptr %segment_num, align 4
  %4 = load i32, ptr %num_columns, align 4
  %5 = load i32, ptr %start_bit, align 4
  %6 = load ptr, ptr %hasher.addr, align 8
  %call = call noundef zeroext i1 @_ZN7rocksdb6ribbon22InterleavedFilterQueryINS0_31SerializableInterleavedSolutionINS0_23StandardRehasherAdapterINS_12_GLOBAL__N_141Standard128RibbonRehasherTypesAndSettingsEEEEENS0_14StandardHasherIS6_EEEEbNT0_4HashENT_5IndexESD_SD_RKSA_RKSC_(i64 noundef %2, i32 noundef %3, i32 noundef %4, i32 noundef %5, ptr noundef nonnull align 4 dereferenceable(4) %6, ptr noundef nonnull align 8 dereferenceable(28) %this1)
  ret i1 %call
}

; Function Attrs: mustprogress uwtable
define linkonce_odr noundef i64 @_ZN7rocksdb14GetSliceHash64ERKNS_5SliceE(ptr noundef nonnull align 8 dereferenceable(16) %key) #0 comdat {
entry:
  %key.addr = alloca ptr, align 8
  store ptr %key, ptr %key.addr, align 8
  %0 = load ptr, ptr %key.addr, align 8
  %call = call noundef ptr @_ZNK7rocksdb5Slice4dataEv(ptr noundef nonnull align 8 dereferenceable(16) %0)
  %1 = load ptr, ptr %key.addr, align 8
  %call1 = call noundef i64 @_ZNK7rocksdb5Slice4sizeEv(ptr noundef nonnull align 8 dereferenceable(16) %1)
  %call2 = call noundef i64 @_ZN7rocksdb6Hash64EPKcm(ptr noundef %call, i64 noundef %call1)
  ret i64 %call2
}

; Function Attrs: mustprogress uwtable
define internal noundef zeroext i1 @_ZN7rocksdb12_GLOBAL__N_127Standard128RibbonBitsReader8MayMatchERKNS_5SliceE(ptr noundef nonnull align 8 dereferenceable(44) %this, ptr noundef nonnull align 8 dereferenceable(16) %key) unnamed_addr #0 align 2 {
entry:
  %this.addr = alloca ptr, align 8
  %key.addr = alloca ptr, align 8
  %h = alloca i64, align 8
  store ptr %this, ptr %this.addr, align 8
  store ptr %key, ptr %key.addr, align 8
  %this1 = load ptr, ptr %this.addr, align 8
  %0 = load ptr, ptr %key.addr, align 8
  %call = call noundef i64 @_ZN7rocksdb14GetSliceHash64ERKNS_5SliceE(ptr noundef nonnull align 8 dereferenceable(16) %0)
  store i64 %call, ptr %h, align 8
  %soln_ = getelementptr inbounds %"class.rocksdb::(anonymous namespace)::Standard128RibbonBitsReader", ptr %this1, i32 0, i32 1
  %hasher_ = getelementptr inbounds %"class.rocksdb::(anonymous namespace)::Standard128RibbonBitsReader", ptr %this1, i32 0, i32 2
  %call2 = call noundef zeroext i1 @_ZNK7rocksdb6ribbon31SerializableInterleavedSolutionINS0_23StandardRehasherAdapterINS_12_GLOBAL__N_141Standard128RibbonRehasherTypesAndSettingsEEEE11FilterQueryINS0_14StandardHasherIS5_EEEEbRKmRKT_(ptr noundef nonnull align 8 dereferenceable(28) %soln_, ptr noundef nonnull align 8 dereferenceable(8) %h, ptr noundef nonnull align 4 dereferenceable(4) %hasher_)
  ret i1 %call2
}