; Function Attrs: mustprogress uwtable
define internal noundef zeroext i1 @_ZN7rocksdb12_GLOBAL__N_127Standard128RibbonBitsReader8MayMatchERKNS_5SliceE(ptr nocapture noundef nonnull readonly align 8 dereferenceable(44) %this, ptr nocapture noundef nonnull readonly align 8 dereferenceable(16) %key) unnamed_addr #3 align 2 {
entry:
  %0 = load ptr, ptr %key, align 8
  %size_.i.i = getelementptr inbounds i8, ptr %key, i64 8
  %1 = load i64, ptr %size_.i.i, align 8
  %call2.i = tail call noundef i64 @_ZN7rocksdb6Hash64EPKcm(ptr noundef %0, i64 noundef %1)
  %soln_ = getelementptr inbounds i8, ptr %this, i64 8
  %hasher_ = getelementptr inbounds i8, ptr %this, i64 40
  %hasher_.val = load i32, ptr %hasher_, align 8
  %conv.i.i.i.i = zext i32 %hasher_.val to i64
  %xor.i.i.i.i = xor i64 %call2.i, %conv.i.i.i.i
  %mul.i.i.i.i = mul i64 %xor.i.i.i.i, 7031196922566818317
  %2 = getelementptr inbounds i8, ptr %this, i64 24
  %iss.val.i.i = load i32, ptr %2, align 8
  %conv.i.i.i.i.i = zext i32 %iss.val.i.i to i64
  %and1.i.i.i.i.i = and i64 %mul.i.i.i.i, 4294967295
  %mul.i.i.i.i.i = mul nuw i64 %and1.i.i.i.i.i, %conv.i.i.i.i.i
  %shr.i.i.i.i.i = lshr i64 %mul.i.i.i.i.i, 32
  %shr3.i.i.i.i.i = lshr i64 %mul.i.i.i.i, 32
  %mul4.i.i.i.i.i = mul nuw i64 %shr3.i.i.i.i.i, %conv.i.i.i.i.i
  %add.i.i.i.i.i = add nuw i64 %shr.i.i.i.i.i, %mul4.i.i.i.i.i
  %shr11.i.i.i.i.i = lshr i64 %add.i.i.i.i.i, 32
  %conv18.i.i.i.i.i = trunc i64 %shr11.i.i.i.i.i to i32
  %3 = getelementptr inbounds i8, ptr %this, i64 32
  %iss.val15.i.i = load i32, ptr %3, align 8
  %4 = getelementptr inbounds i8, ptr %this, i64 28
  %iss.val16.i.i = load i32, ptr %4, align 4
  %div14.i.i = lshr i32 %conv18.i.i.i.i.i, 7
  %mul.i.i = mul i32 %div14.i.i, %iss.val16.i.i
  %.sroa.speculated.i.i = tail call i32 @llvm.umin.i32(i32 %iss.val15.i.i, i32 %div14.i.i)
  %sub.i.i = sub i32 %mul.i.i, %.sroa.speculated.i.i
  %cmp.i.i = icmp ult i32 %div14.i.i, %iss.val15.i.i
  %cond.neg.i.i = sext i1 %cmp.i.i to i32
  %sub6.i.i = add i32 %iss.val16.i.i, %cond.neg.i.i
  %rem.i.i = and i32 %conv18.i.i.i.i.i, 127
  %cmp7.i.i = icmp eq i32 %rem.i.i, 0
  %cond8.i.i = select i1 %cmp7.i.i, i32 0, i32 %sub6.i.i
  %add.i.i = add i32 %cond8.i.i, %sub6.i.i
  %iss.val17.i.i = load ptr, ptr %soln_, align 8
  %cmp.i18.i.i = icmp eq i32 %add.i.i, 0
  br i1 %cmp.i18.i.i, label %_ZNK7rocksdb6ribbon31SerializableInterleavedSolutionINS0_23StandardRehasherAdapterINS_12_GLOBAL__N_141Standard128RibbonRehasherTypesAndSettingsEEEE11FilterQueryINS0_14StandardHasherIS5_EEEEbRKmRKT_.exit, label %if.end.i.i.i

if.end.i.i.i:                                     ; preds = %entry
  %conv.i.i.i = zext i32 %sub.i.i to i64
  %mul.i.i.i = shl nuw nsw i64 %conv.i.i.i, 4
  %add9.i.i = add i32 %sub.i.i, -1
  %sub.i.i.i = add i32 %add9.i.i, %add.i.i
  %conv3.i.i.i = zext i32 %sub.i.i.i to i64
  %mul4.i.i.i = shl nuw nsw i64 %conv3.i.i.i, 4
  %add.ptr5.i.i.i = getelementptr inbounds i8, ptr %iss.val17.i.i, i64 %mul4.i.i.i
  %cmp61.i.i.i = icmp ult i64 %mul.i.i.i, %mul4.i.i.i
  br i1 %cmp61.i.i.i, label %while.body.preheader.i.i.i, label %while.end.i.i.i

while.body.preheader.i.i.i:                       ; preds = %if.end.i.i.i
  %add.ptr.i.i.i = getelementptr inbounds i8, ptr %iss.val17.i.i, i64 %mul.i.i.i
  br label %while.body.i.i.i

while.body.i.i.i:                                 ; preds = %while.body.i.i.i, %while.body.preheader.i.i.i
  %cur.02.i.i.i = phi ptr [ %add.ptr7.i.i.i, %while.body.i.i.i ], [ %add.ptr.i.i.i, %while.body.preheader.i.i.i ]
  tail call void @llvm.prefetch.p0(ptr %cur.02.i.i.i, i32 0, i32 1, i32 1)
  %add.ptr7.i.i.i = getelementptr inbounds i8, ptr %cur.02.i.i.i, i64 64
  %cmp6.i.i.i = icmp ult ptr %add.ptr7.i.i.i, %add.ptr5.i.i.i
  br i1 %cmp6.i.i.i, label %while.body.i.i.i, label %while.end.i.i.i, !llvm.loop !151

while.end.i.i.i:                                  ; preds = %while.body.i.i.i, %if.end.i.i.i
  tail call void @llvm.prefetch.p0(ptr %add.ptr5.i.i.i, i32 0, i32 1, i32 1)
  br label %_ZNK7rocksdb6ribbon31SerializableInterleavedSolutionINS0_23StandardRehasherAdapterINS_12_GLOBAL__N_141Standard128RibbonRehasherTypesAndSettingsEEEE11FilterQueryINS0_14StandardHasherIS5_EEEEbRKmRKT_.exit

_ZNK7rocksdb6ribbon31SerializableInterleavedSolutionINS0_23StandardRehasherAdapterINS_12_GLOBAL__N_141Standard128RibbonRehasherTypesAndSettingsEEEE11FilterQueryINS0_14StandardHasherIS5_EEEEbRKmRKT_.exit: ; preds = %entry, %while.end.i.i.i
  %call.i = tail call fastcc noundef zeroext i1 @_ZN7rocksdb6ribbon22InterleavedFilterQueryINS0_31SerializableInterleavedSolutionINS0_23StandardRehasherAdapterINS_12_GLOBAL__N_141Standard128RibbonRehasherTypesAndSettingsEEEEENS0_14StandardHasherIS6_EEEEbNT0_4HashENT_5IndexESD_SD_RKSA_RKSC_(i64 noundef %mul.i.i.i.i, i32 noundef %sub.i.i, i32 noundef %sub6.i.i, i32 noundef %rem.i.i, ptr %iss.val17.i.i)
  ret i1 %call.i
}